; Function Attrs: mustprogress uwtable
define void @_ZN18OpenImageIO_v2_6_010Filesystem19temp_directory_pathB5cxx11Ev(ptr noalias sret(%"class.std::__cxx11::basic_string") align 8 %agg.result) local_unnamed_addr #5 personality ptr @__gxx_personality_v0 {
entry:
  %ref.tmp.i.i = alloca %"class.std::allocator", align 1
  %ec = alloca %"class.std::error_code", align 8
  %p = alloca %"class.std::filesystem::__cxx11::path", align 8
  store i32 0, ptr %ec, align 8
  %_M_cat.i = getelementptr inbounds i8, ptr %ec, i64 8
  %call.i = tail call noundef nonnull align 8 dereferenceable(8) ptr @_ZNSt3_V215system_categoryEv() #35
  store ptr %call.i, ptr %_M_cat.i, align 8
  call void @_ZNSt10filesystem19temp_directory_pathB5cxx11ERSt10error_code(ptr nonnull sret(%"class.std::filesystem::__cxx11::path") align 8 %p, ptr noundef nonnull align 8 dereferenceable(16) %ec)
  %0 = load i32, ptr %ec, align 8
  %cmp.i.not = icmp eq i32 %0, 0
  br i1 %cmp.i.not, label %cond.false, label %cond.true

cond.true:                                        ; preds = %entry
  call void @_ZNSt7__cxx1112basic_stringIcSt11char_traitsIcESaIcEEC1Ev(ptr noundef nonnull align 8 dereferenceable(32) %agg.result) #32
  br label %cond.end

cond.false:                                       ; preds = %entry
  call void @llvm.lifetime.start.p0(i64 1, ptr nonnull %ref.tmp.i.i), !noalias !134
  call void @_ZNSaIcEC1Ev(ptr noundef nonnull align 1 dereferenceable(1) %ref.tmp.i.i) #32, !noalias !137
  %call.i.i.i = call noundef ptr @_ZNKSt7__cxx1112basic_stringIcSt11char_traitsIcESaIcEE5c_strEv(ptr noundef nonnull align 8 dereferenceable(32) %p) #32, !noalias !140
  %call3.i.i.i = call noundef i64 @_ZNKSt7__cxx1112basic_stringIcSt11char_traitsIcESaIcEE6lengthEv(ptr noundef nonnull align 8 dereferenceable(32) %p) #32, !noalias !140
  invoke void @_ZNSt7__cxx1112basic_stringIcSt11char_traitsIcESaIcEEC1EPKcmRKS3_(ptr noundef nonnull align 8 dereferenceable(32) %agg.result, ptr noundef %call.i.i.i, i64 noundef %call3.i.i.i, ptr noundef nonnull align 1 dereferenceable(1) %ref.tmp.i.i)
          to label %_ZN18OpenImageIO_v2_6_07pathstrERKNSt10filesystem7__cxx114pathE.exit unwind label %lpad.i.i

lpad.i.i:                                         ; preds = %cond.false
  %1 = landingpad { ptr, i32 }
          cleanup
  call void @_ZNSaIcED1Ev(ptr noundef nonnull align 1 dereferenceable(1) %ref.tmp.i.i) #32
  call void @_ZNSt10filesystem7__cxx114pathD2Ev(ptr noundef nonnull align 8 dereferenceable(40) %p) #32
  resume { ptr, i32 } %1

_ZN18OpenImageIO_v2_6_07pathstrERKNSt10filesystem7__cxx114pathE.exit: ; preds = %cond.false
  call void @_ZNSaIcED1Ev(ptr noundef nonnull align 1 dereferenceable(1) %ref.tmp.i.i) #32
  call void @llvm.lifetime.end.p0(i64 1, ptr nonnull %ref.tmp.i.i), !noalias !134
  br label %cond.end

cond.end:                                         ; preds = %_ZN18OpenImageIO_v2_6_07pathstrERKNSt10filesystem7__cxx114pathE.exit, %cond.true
  %_M_cmpts.i = getelementptr inbounds i8, ptr %p, i64 32
  %2 = load ptr, ptr %_M_cmpts.i, align 8
  %cmp.not.i.i.i = icmp eq ptr %2, null
  br i1 %cmp.not.i.i.i, label %_ZNSt10filesystem7__cxx114pathD2Ev.exit, label %if.then.i.i.i

if.then.i.i.i:                                    ; preds = %cond.end
  call void @_ZNKSt10filesystem7__cxx114path5_List13_Impl_deleterclEPNS2_5_ImplE(ptr noundef nonnull align 1 dereferenceable(1) %_M_cmpts.i, ptr noundef nonnull %2) #32
  br label %_ZNSt10filesystem7__cxx114pathD2Ev.exit

_ZNSt10filesystem7__cxx114pathD2Ev.exit:          ; preds = %cond.end, %if.then.i.i.i
  store ptr null, ptr %_M_cmpts.i, align 8
  call void @_ZNSt7__cxx1112basic_stringIcSt11char_traitsIcESaIcEED1Ev(ptr noundef nonnull align 8 dereferenceable(32) %p) #32
  ret void
}